; Function Attrs: mustprogress uwtable
define hidden void @_ZN6spacer5lemma11add_bindingERK10ref_vectorI3app11ast_managerE(ptr noundef nonnull align 8 dereferenceable(109) %0, ptr noundef nonnull readonly align 8 captures(none) dereferenceable(16) %1) local_unnamed_addr #3 align 2 {
  %3 = getelementptr inbounds nuw i8, ptr %0, i64 56
  %4 = load ptr, ptr %3, align 8, !tbaa !95
  %5 = icmp eq ptr %4, null
  br i1 %5, label %_ZN15ref_vector_coreI3app19ref_manager_wrapperIS0_11ast_managerEE6appendERKS4_.exit, label %_ZNK15ref_vector_coreI3app19ref_manager_wrapperIS0_11ast_managerEE4sizeEv.exit.i

_ZNK15ref_vector_coreI3app19ref_manager_wrapperIS0_11ast_managerEE4sizeEv.exit.i: ; preds = %2
  %6 = getelementptr inbounds i8, ptr %4, i64 -4
  %7 = load i32, ptr %6, align 4, !tbaa !100
  %8 = icmp eq i32 %7, 0
  br i1 %8, label %_ZN15ref_vector_coreI3app19ref_manager_wrapperIS0_11ast_managerEE6appendERKS4_.exit, label %9

9:                                                ; preds = %_ZNK15ref_vector_coreI3app19ref_manager_wrapperIS0_11ast_managerEE4sizeEv.exit.i
  %10 = getelementptr inbounds nuw i8, ptr %0, i64 72
  %11 = load ptr, ptr %10, align 8, !tbaa !95
  %12 = icmp eq ptr %11, null
  br i1 %12, label %_ZN6spacer5lemma11has_bindingERK10ref_vectorI3app11ast_managerE.exit, label %_ZNK15ref_vector_coreI3app19ref_manager_wrapperIS0_11ast_managerEE4sizeEv.exit26.i

_ZNK15ref_vector_coreI3app19ref_manager_wrapperIS0_11ast_managerEE4sizeEv.exit26.i: ; preds = %9
  %13 = getelementptr inbounds i8, ptr %11, i64 -4
  %14 = load i32, ptr %13, align 4, !tbaa !100
  %.not2429.not.i = icmp eq i32 %14, 0
  br i1 %.not2429.not.i, label %_ZN6spacer5lemma11has_bindingERK10ref_vectorI3app11ast_managerE.exit, label %.preheader.lr.ph.i

.preheader.lr.ph.i:                               ; preds = %_ZNK15ref_vector_coreI3app19ref_manager_wrapperIS0_11ast_managerEE4sizeEv.exit26.i
  %15 = getelementptr inbounds nuw i8, ptr %1, i64 8
  %16 = load ptr, ptr %15, align 8, !tbaa !95
  %wide.trip.count.i = zext i32 %7 to i64
  br label %.preheader.i

17:                                               ; preds = %28
  %18 = add i32 %.01930.i, %7
  %.not24.i = icmp ult i32 %18, %14
  br i1 %.not24.i, label %.preheader.i, label %_ZN6spacer5lemma11has_bindingERK10ref_vectorI3app11ast_managerE.exit, !llvm.loop !340

.preheader.i:                                     ; preds = %17, %.preheader.lr.ph.i
  %.01930.i = phi i32 [ 0, %.preheader.lr.ph.i ], [ %18, %17 ]
  br label %19

19:                                               ; preds = %27, %.preheader.i
  %indvars.iv.i = phi i64 [ 0, %.preheader.i ], [ %indvars.iv.next.i, %27 ]
  %20 = trunc nuw i64 %indvars.iv.i to i32
  %21 = add i32 %.01930.i, %20
  %22 = zext i32 %21 to i64
  %23 = getelementptr inbounds nuw ptr, ptr %11, i64 %22
  %24 = load ptr, ptr %23, align 8, !tbaa !107
  %25 = getelementptr inbounds nuw ptr, ptr %16, i64 %indvars.iv.i
  %26 = load ptr, ptr %25, align 8, !tbaa !107
  %.not.i = icmp eq ptr %24, %26
  br i1 %.not.i, label %27, label %28

27:                                               ; preds = %19
  %indvars.iv.next.i = add nuw nsw i64 %indvars.iv.i, 1
  %exitcond.not.i = icmp eq i64 %indvars.iv.next.i, %wide.trip.count.i
  br i1 %exitcond.not.i, label %_ZN15ref_vector_coreI3app19ref_manager_wrapperIS0_11ast_managerEE6appendERKS4_.exit, label %19, !llvm.loop !341

28:                                               ; preds = %19
  %.not23.i = icmp eq i32 %7, %20
  br i1 %.not23.i, label %_ZN15ref_vector_coreI3app19ref_manager_wrapperIS0_11ast_managerEE6appendERKS4_.exit, label %17

_ZN6spacer5lemma11has_bindingERK10ref_vectorI3app11ast_managerE.exit: ; preds = %17, %_ZNK15ref_vector_coreI3app19ref_manager_wrapperIS0_11ast_managerEE4sizeEv.exit26.i, %9
  %29 = getelementptr inbounds nuw i8, ptr %1, i64 8
  br label %30

30:                                               ; preds = %_ZN15ref_vector_coreI3app19ref_manager_wrapperIS0_11ast_managerEE9push_backEPS0_.exit.i, %_ZN6spacer5lemma11has_bindingERK10ref_vectorI3app11ast_managerE.exit
  %31 = phi ptr [ %54, %_ZN15ref_vector_coreI3app19ref_manager_wrapperIS0_11ast_managerEE9push_backEPS0_.exit.i ], [ %11, %_ZN6spacer5lemma11has_bindingERK10ref_vectorI3app11ast_managerE.exit ]
  %indvars.iv.i3 = phi i64 [ %indvars.iv.next.i5, %_ZN15ref_vector_coreI3app19ref_manager_wrapperIS0_11ast_managerEE9push_backEPS0_.exit.i ], [ 0, %_ZN6spacer5lemma11has_bindingERK10ref_vectorI3app11ast_managerE.exit ]
  %32 = load ptr, ptr %29, align 8, !tbaa !95
  %33 = icmp eq ptr %32, null
  br i1 %33, label %_ZNK15ref_vector_coreI3app19ref_manager_wrapperIS0_11ast_managerEE4sizeEv.exit.i4, label %34

34:                                               ; preds = %30
  %35 = getelementptr inbounds i8, ptr %32, i64 -4
  %36 = load i32, ptr %35, align 4, !tbaa !100
  %37 = zext i32 %36 to i64
  br label %_ZNK15ref_vector_coreI3app19ref_manager_wrapperIS0_11ast_managerEE4sizeEv.exit.i4

_ZNK15ref_vector_coreI3app19ref_manager_wrapperIS0_11ast_managerEE4sizeEv.exit.i4: ; preds = %34, %30
  %.0.i.i.i = phi i64 [ %37, %34 ], [ 0, %30 ]
  %38 = icmp samesign ult i64 %indvars.iv.i3, %.0.i.i.i
  br i1 %38, label %39, label %_ZN15ref_vector_coreI3app19ref_manager_wrapperIS0_11ast_managerEE6appendERKS4_.exit

39:                                               ; preds = %_ZNK15ref_vector_coreI3app19ref_manager_wrapperIS0_11ast_managerEE4sizeEv.exit.i4
  %40 = getelementptr inbounds nuw ptr, ptr %32, i64 %indvars.iv.i3
  %41 = load ptr, ptr %40, align 8, !tbaa !107
  %.not.i.i.i.i.i = icmp eq ptr %41, null
  br i1 %.not.i.i.i.i.i, label %_ZN15ref_vector_coreI3app19ref_manager_wrapperIS0_11ast_managerEE7inc_refEPS0_.exit.i.i, label %42

42:                                               ; preds = %39
  %43 = getelementptr inbounds nuw i8, ptr %41, i64 8
  %44 = load i32, ptr %43, align 4, !tbaa !103
  %45 = add i32 %44, 1
  store i32 %45, ptr %43, align 4, !tbaa !103
  br label %_ZN15ref_vector_coreI3app19ref_manager_wrapperIS0_11ast_managerEE7inc_refEPS0_.exit.i.i

_ZN15ref_vector_coreI3app19ref_manager_wrapperIS0_11ast_managerEE7inc_refEPS0_.exit.i.i: ; preds = %42, %39
  %46 = icmp eq ptr %31, null
  br i1 %46, label %53, label %47

47:                                               ; preds = %_ZN15ref_vector_coreI3app19ref_manager_wrapperIS0_11ast_managerEE7inc_refEPS0_.exit.i.i
  %48 = getelementptr inbounds i8, ptr %31, i64 -4
  %49 = load i32, ptr %48, align 4, !tbaa !100
  %50 = getelementptr inbounds i8, ptr %31, i64 -8
  %51 = load i32, ptr %50, align 4, !tbaa !100
  %52 = icmp eq i32 %49, %51
  br i1 %52, label %53, label %_ZN15ref_vector_coreI3app19ref_manager_wrapperIS0_11ast_managerEE9push_backEPS0_.exit.i

53:                                               ; preds = %47, %_ZN15ref_vector_coreI3app19ref_manager_wrapperIS0_11ast_managerEE7inc_refEPS0_.exit.i.i
  tail call void @_ZN6vectorIP3appLb0EjE13expand_vectorEv(ptr noundef nonnull align 8 dereferenceable(8) %10)
  %.pre.i.i.i = load ptr, ptr %10, align 8, !tbaa !95
  %.phi.trans.insert.i.i.i = getelementptr inbounds i8, ptr %.pre.i.i.i, i64 -4
  %.pre2.i.i.i = load i32, ptr %.phi.trans.insert.i.i.i, align 4, !tbaa !100
  br label %_ZN15ref_vector_coreI3app19ref_manager_wrapperIS0_11ast_managerEE9push_backEPS0_.exit.i

_ZN15ref_vector_coreI3app19ref_manager_wrapperIS0_11ast_managerEE9push_backEPS0_.exit.i: ; preds = %53, %47
  %54 = phi ptr [ %.pre.i.i.i, %53 ], [ %31, %47 ]
  %55 = phi i32 [ %.pre2.i.i.i, %53 ], [ %49, %47 ]
  %56 = getelementptr inbounds i8, ptr %54, i64 -4
  %57 = zext i32 %55 to i64
  %58 = getelementptr inbounds nuw ptr, ptr %54, i64 %57
  store ptr %41, ptr %58, align 8, !tbaa !107
  %59 = add i32 %55, 1
  store i32 %59, ptr %56, align 4, !tbaa !100
  %indvars.iv.next.i5 = add nuw nsw i64 %indvars.iv.i3, 1
  br label %30, !llvm.loop !159

_ZN15ref_vector_coreI3app19ref_manager_wrapperIS0_11ast_managerEE6appendERKS4_.exit: ; preds = %28, %27, %_ZNK15ref_vector_coreI3app19ref_manager_wrapperIS0_11ast_managerEE4sizeEv.exit.i4, %2, %_ZNK15ref_vector_coreI3app19ref_manager_wrapperIS0_11ast_managerEE4sizeEv.exit.i
  ret void
}